target datalayout = "e-m:e-p270:32:32-p271:32:32-p272:64:64-i64:64-i128:128-f80:128-n8:16:32:64-S128"
target triple = "x86_64-pc-linux-gnu"

@proto_register_carp.ett = internal global [2 x ptr] [ptr @ett_carp, ptr @ett_carp_ver_type], align 16
@.str.29 = private unnamed_addr constant [35 x i8] c"Common Address Redundancy Protocol\00", align 1
@.str.30 = private unnamed_addr constant [5 x i8] c"CARP\00", align 1
@.str.31 = private unnamed_addr constant [5 x i8] c"carp\00", align 1
@proto_carp = internal global i32 0, align 4
@carp_handle = internal global ptr null, align 8

; Function Attrs: null_pointer_is_valid sspstrong uwtable
define hidden void @proto_register_carp() #0 {
  %1 = alloca ptr, align 8
  call void @llvm.lifetime.start.p0(i64 8, ptr %1) #3
  %2 = call i32 @proto_register_protocol(ptr noundef @.str.29, ptr noundef @.str.30, ptr noundef @.str.31)
  store i32 %2, ptr @proto_carp, align 4
  %3 = load i32, ptr @proto_carp, align 4
  %4 = call ptr @register_dissector(ptr noundef @.str.31, ptr noundef @dissect_carp, i32 noundef %3)
  store ptr %4, ptr @carp_handle, align 8
  %5 = load i32, ptr @proto_carp, align 4
  call void @proto_register_field_array(i32 noundef %5, ptr noundef @proto_register_carp.hf, i32 noundef 12)
  call void @proto_register_subtree_array(ptr noundef @proto_register_carp.ett, i32 noundef 2)
  %6 = load i32, ptr @proto_carp, align 4
  %7 = call ptr @expert_register_protocol(i32 noundef %6)
  store ptr %7, ptr %1, align 8
  %8 = load ptr, ptr %1, align 8
  call void @expert_register_field_array(ptr noundef %8, ptr noundef @proto_register_carp.ei, i32 noundef 1)
  call void @llvm.lifetime.end.p0(i64 8, ptr %1) #3
  ret void
}